target datalayout = "e-m:e-p270:32:32-p271:32:32-p272:64:64-i64:64-i128:128-f80:128-n8:16:32:64-S128"
target triple = "x86_64-unknown-linux-gnu"

%"class.std::vector" = type { %"struct.std::_Vector_base" }
%"struct.std::_Vector_base" = type { %"struct.std::_Vector_base<double, std::allocator<double>>::_Vector_impl" }
%"struct.std::_Vector_base<double, std::allocator<double>>::_Vector_impl" = type { %"struct.std::_Vector_base<double, std::allocator<double>>::_Vector_impl_data" }
%"struct.std::_Vector_base<double, std::allocator<double>>::_Vector_impl_data" = type { ptr, ptr, ptr }
%"class.QuantLib::MultiStepTarn" = type { %"class.QuantLib::MultiProductMultiStep", %"class.std::vector", %"class.std::vector", %"class.std::vector", %"class.std::vector", %"class.std::vector", double, %"class.std::vector", %"class.std::vector", %"class.std::vector", i64, double, i64 }
%"class.QuantLib::MultiProductMultiStep" = type { %"class.QuantLib::MarketModelMultiProduct", %"class.std::vector", %"class.QuantLib::EvolutionDescription" }
%"class.QuantLib::MarketModelMultiProduct" = type { ptr }
%"class.QuantLib::EvolutionDescription" = type { i64, %"class.std::vector", %"class.std::vector", %"class.std::vector.0", %"class.std::vector", %"class.std::vector.5" }
%"class.std::vector.0" = type { %"struct.std::_Vector_base.1" }
%"struct.std::_Vector_base.1" = type { %"struct.std::_Vector_base<std::pair<unsigned long, unsigned long>, std::allocator<std::pair<unsigned long, unsigned long>>>::_Vector_impl" }
%"struct.std::_Vector_base<std::pair<unsigned long, unsigned long>, std::allocator<std::pair<unsigned long, unsigned long>>>::_Vector_impl" = type { %"struct.std::_Vector_base<std::pair<unsigned long, unsigned long>, std::allocator<std::pair<unsigned long, unsigned long>>>::_Vector_impl_data" }
%"struct.std::_Vector_base<std::pair<unsigned long, unsigned long>, std::allocator<std::pair<unsigned long, unsigned long>>>::_Vector_impl_data" = type { ptr, ptr, ptr }
%"class.std::vector.5" = type { %"struct.std::_Vector_base.6" }
%"struct.std::_Vector_base.6" = type { %"struct.std::_Vector_base<unsigned long, std::allocator<unsigned long>>::_Vector_impl" }
%"struct.std::_Vector_base<unsigned long, std::allocator<unsigned long>>::_Vector_impl" = type { %"struct.std::_Vector_base<unsigned long, std::allocator<unsigned long>>::_Vector_impl_data" }
%"struct.std::_Vector_base<unsigned long, std::allocator<unsigned long>>::_Vector_impl_data" = type { ptr, ptr, ptr }
%"struct.QuantLib::MarketModelMultiProduct::CashFlow" = type { i64, double }
%"struct.std::_Vector_base.14" = type { %"struct.std::_Vector_base<std::vector<QuantLib::MarketModelMultiProduct::CashFlow>, std::allocator<std::vector<QuantLib::MarketModelMultiProduct::CashFlow>>>::_Vector_impl" }
%"struct.std::_Vector_base<std::vector<QuantLib::MarketModelMultiProduct::CashFlow>, std::allocator<std::vector<QuantLib::MarketModelMultiProduct::CashFlow>>>::_Vector_impl" = type { %"struct.std::_Vector_base<std::vector<QuantLib::MarketModelMultiProduct::CashFlow>, std::allocator<std::vector<QuantLib::MarketModelMultiProduct::CashFlow>>>::_Vector_impl_data" }
%"struct.std::_Vector_base<std::vector<QuantLib::MarketModelMultiProduct::CashFlow>, std::allocator<std::vector<QuantLib::MarketModelMultiProduct::CashFlow>>>::_Vector_impl_data" = type { ptr, ptr, ptr }
%"class.std::vector.18" = type { %"struct.std::_Vector_base.19" }
%"struct.std::_Vector_base.19" = type { %"struct.std::_Vector_base<QuantLib::MarketModelMultiProduct::CashFlow, std::allocator<QuantLib::MarketModelMultiProduct::CashFlow>>::_Vector_impl" }
%"struct.std::_Vector_base<QuantLib::MarketModelMultiProduct::CashFlow, std::allocator<QuantLib::MarketModelMultiProduct::CashFlow>>::_Vector_impl" = type { %"struct.std::_Vector_base<QuantLib::MarketModelMultiProduct::CashFlow, std::allocator<QuantLib::MarketModelMultiProduct::CashFlow>>::_Vector_impl_data" }
%"struct.std::_Vector_base<QuantLib::MarketModelMultiProduct::CashFlow, std::allocator<QuantLib::MarketModelMultiProduct::CashFlow>>::_Vector_impl_data" = type { ptr, ptr, ptr }

; Function Attrs: inlinehint mustprogress nounwind uwtable
define linkonce_odr noundef nonnull align 8 dereferenceable(8) ptr @_ZSt3maxIdERKT_S2_S2_(ptr noundef nonnull align 8 dereferenceable(8) %__a, ptr noundef nonnull align 8 dereferenceable(8) %__b) #5 comdat {
entry:
  %retval = alloca ptr, align 8
  %__a.addr = alloca ptr, align 8
  %__b.addr = alloca ptr, align 8
  store ptr %__a, ptr %__a.addr, align 8, !tbaa !3
  store ptr %__b, ptr %__b.addr, align 8, !tbaa !3
  %0 = load ptr, ptr %__a.addr, align 8, !tbaa !3
  %1 = load double, ptr %0, align 8, !tbaa !7
  %2 = load ptr, ptr %__b.addr, align 8, !tbaa !3
  %3 = load double, ptr %2, align 8, !tbaa !7
  %cmp = fcmp olt double %1, %3
  br i1 %cmp, label %if.then, label %if.end

if.then:                                          ; preds = %entry
  %4 = load ptr, ptr %__b.addr, align 8, !tbaa !3
  store ptr %4, ptr %retval, align 8
  br label %return

if.end:                                           ; preds = %entry
  %5 = load ptr, ptr %__a.addr, align 8, !tbaa !3
  store ptr %5, ptr %retval, align 8
  br label %return

return:                                           ; preds = %if.end, %if.then
  %6 = load ptr, ptr %retval, align 8
  ret ptr %6
}

; Function Attrs: mustprogress nounwind uwtable
define linkonce_odr noundef nonnull align 8 dereferenceable(16) ptr @_ZNSt6vectorIN8QuantLib23MarketModelMultiProduct8CashFlowESaIS2_EEixEm(ptr noundef nonnull align 8 dereferenceable(24) %this, i64 noundef %__n) #2 comdat align 2 {
entry:
  %this.addr = alloca ptr, align 8
  %__n.addr = alloca i64, align 8
  store ptr %this, ptr %this.addr, align 8, !tbaa !3
  store i64 %__n, ptr %__n.addr, align 8, !tbaa !30
  %this1 = load ptr, ptr %this.addr, align 8
  %_M_impl = getelementptr inbounds nuw %"struct.std::_Vector_base.19", ptr %this1, i32 0, i32 0
  %_M_start = getelementptr inbounds nuw %"struct.std::_Vector_base<QuantLib::MarketModelMultiProduct::CashFlow, std::allocator<QuantLib::MarketModelMultiProduct::CashFlow>>::_Vector_impl_data", ptr %_M_impl, i32 0, i32 0
  %0 = load ptr, ptr %_M_start, align 8, !tbaa !44
  %1 = load i64, ptr %__n.addr, align 8, !tbaa !30
  %add.ptr = getelementptr inbounds nuw %"struct.QuantLib::MarketModelMultiProduct::CashFlow", ptr %0, i64 %1
  ret ptr %add.ptr
}

; Function Attrs: mustprogress nounwind uwtable
define linkonce_odr noundef nonnull align 8 dereferenceable(24) ptr @_ZNSt6vectorIS_IN8QuantLib23MarketModelMultiProduct8CashFlowESaIS2_EESaIS4_EEixEm(ptr noundef nonnull align 8 dereferenceable(24) %this, i64 noundef %__n) #2 comdat align 2 {
entry:
  %this.addr = alloca ptr, align 8
  %__n.addr = alloca i64, align 8
  store ptr %this, ptr %this.addr, align 8, !tbaa !3
  store i64 %__n, ptr %__n.addr, align 8, !tbaa !30
  %this1 = load ptr, ptr %this.addr, align 8
  %_M_impl = getelementptr inbounds nuw %"struct.std::_Vector_base.14", ptr %this1, i32 0, i32 0
  %_M_start = getelementptr inbounds nuw %"struct.std::_Vector_base<std::vector<QuantLib::MarketModelMultiProduct::CashFlow>, std::allocator<std::vector<QuantLib::MarketModelMultiProduct::CashFlow>>>::_Vector_impl_data", ptr %_M_impl, i32 0, i32 0
  %0 = load ptr, ptr %_M_start, align 8, !tbaa !42
  %1 = load i64, ptr %__n.addr, align 8, !tbaa !30
  %add.ptr = getelementptr inbounds nuw %"class.std::vector.18", ptr %0, i64 %1
  ret ptr %add.ptr
}

; Function Attrs: mustprogress nounwind uwtable
define linkonce_odr noundef nonnull align 8 dereferenceable(8) ptr @_ZNSt6vectorIdSaIdEEixEm(ptr noundef nonnull align 8 dereferenceable(24) %this, i64 noundef %__n) #2 comdat align 2 {
entry:
  %this.addr = alloca ptr, align 8
  %__n.addr = alloca i64, align 8
  store ptr %this, ptr %this.addr, align 8, !tbaa !3
  store i64 %__n, ptr %__n.addr, align 8, !tbaa !30
  %this1 = load ptr, ptr %this.addr, align 8
  %_M_impl = getelementptr inbounds nuw %"struct.std::_Vector_base", ptr %this1, i32 0, i32 0
  %_M_start = getelementptr inbounds nuw %"struct.std::_Vector_base<double, std::allocator<double>>::_Vector_impl_data", ptr %_M_impl, i32 0, i32 0
  %0 = load ptr, ptr %_M_start, align 8, !tbaa !33
  %1 = load i64, ptr %__n.addr, align 8, !tbaa !30
  %add.ptr = getelementptr inbounds nuw double, ptr %0, i64 %1
  ret ptr %add.ptr
}

; Function Attrs: mustprogress nounwind uwtable
define linkonce_odr noundef nonnull align 8 dereferenceable(8) ptr @_ZNSt6vectorImSaImEEixEm(ptr noundef nonnull align 8 dereferenceable(24) %this, i64 noundef %__n) #2 comdat align 2 {
entry:
  %this.addr = alloca ptr, align 8
  %__n.addr = alloca i64, align 8
  store ptr %this, ptr %this.addr, align 8, !tbaa !3
  store i64 %__n, ptr %__n.addr, align 8, !tbaa !30
  %this1 = load ptr, ptr %this.addr, align 8
  %_M_impl = getelementptr inbounds nuw %"struct.std::_Vector_base.6", ptr %this1, i32 0, i32 0
  %_M_start = getelementptr inbounds nuw %"struct.std::_Vector_base<unsigned long, std::allocator<unsigned long>>::_Vector_impl_data", ptr %_M_impl, i32 0, i32 0
  %0 = load ptr, ptr %_M_start, align 8, !tbaa !41
  %1 = load i64, ptr %__n.addr, align 8, !tbaa !30
  %add.ptr = getelementptr inbounds nuw i64, ptr %0, i64 %1
  ret ptr %add.ptr
}

; Function Attrs: mustprogress uwtable
define noundef zeroext i1 @_ZN8QuantLib13MultiStepTarn12nextTimeStepERKNS_10CurveStateERSt6vectorImSaImEERS4_IS4_INS_23MarketModelMultiProduct8CashFlowESaIS9_EESaISB_EE(ptr noundef nonnull align 8 dereferenceable(384) %this, ptr noundef nonnull align 8 dereferenceable(64) %currentState, ptr noundef nonnull align 8 dereferenceable(24) %numberCashFlowsThisStep, ptr noundef nonnull align 8 dereferenceable(24) %genCashFlows) unnamed_addr #0 align 2 {
entry:
  %retval = alloca i1, align 1
  %this.addr = alloca ptr, align 8
  %currentState.addr = alloca ptr, align 8
  %numberCashFlowsThisStep.addr = alloca ptr, align 8
  %genCashFlows.addr = alloca ptr, align 8
  %liborRate = alloca double, align 8
  %obviousCoupon = alloca double, align 8
  %ref.tmp = alloca double, align 8
  %ref.tmp22 = alloca double, align 8
  %cleanup.dest.slot = alloca i32, align 4
  %coupon = alloca double, align 8
  store ptr %this, ptr %this.addr, align 8, !tbaa !3
  store ptr %currentState, ptr %currentState.addr, align 8, !tbaa !3
  store ptr %numberCashFlowsThisStep, ptr %numberCashFlowsThisStep.addr, align 8, !tbaa !3
  store ptr %genCashFlows, ptr %genCashFlows.addr, align 8, !tbaa !3
  %this1 = load ptr, ptr %this.addr, align 8
  call void @llvm.lifetime.start.p0(i64 8, ptr %liborRate) #16
  %0 = load ptr, ptr %currentState.addr, align 8, !tbaa !3
  %currentIndex_ = getelementptr inbounds nuw %"class.QuantLib::MultiStepTarn", ptr %this1, i32 0, i32 12
  %1 = load i64, ptr %currentIndex_, align 8, !tbaa !36
  %vtable = load ptr, ptr %0, align 8, !tbaa !9
  %vfn = getelementptr inbounds ptr, ptr %vtable, i64 3
  %2 = load ptr, ptr %vfn, align 8
  %call = call noundef double %2(ptr noundef nonnull align 8 dereferenceable(64) %0, i64 noundef %1)
  store double %call, ptr %liborRate, align 8, !tbaa !7
  %3 = load ptr, ptr %numberCashFlowsThisStep.addr, align 8, !tbaa !3
  %call2 = call noundef nonnull align 8 dereferenceable(8) ptr @_ZNSt6vectorImSaImEEixEm(ptr noundef nonnull align 8 dereferenceable(24) %3, i64 noundef 0) #16
  store i64 2, ptr %call2, align 8, !tbaa !30
  %4 = load double, ptr %liborRate, align 8, !tbaa !7
  %floatingSpreads_ = getelementptr inbounds nuw %"class.QuantLib::MultiStepTarn", ptr %this1, i32 0, i32 9
  %currentIndex_3 = getelementptr inbounds nuw %"class.QuantLib::MultiStepTarn", ptr %this1, i32 0, i32 12
  %5 = load i64, ptr %currentIndex_3, align 8, !tbaa !36
  %call4 = call noundef nonnull align 8 dereferenceable(8) ptr @_ZNSt6vectorIdSaIdEEixEm(ptr noundef nonnull align 8 dereferenceable(24) %floatingSpreads_, i64 noundef %5) #16
  %6 = load double, ptr %call4, align 8, !tbaa !7
  %add = fadd double %4, %6
  %accrualsFloating_ = getelementptr inbounds nuw %"class.QuantLib::MultiStepTarn", ptr %this1, i32 0, i32 2
  %currentIndex_5 = getelementptr inbounds nuw %"class.QuantLib::MultiStepTarn", ptr %this1, i32 0, i32 12
  %7 = load i64, ptr %currentIndex_5, align 8, !tbaa !36
  %call6 = call noundef nonnull align 8 dereferenceable(8) ptr @_ZNSt6vectorIdSaIdEEixEm(ptr noundef nonnull align 8 dereferenceable(24) %accrualsFloating_, i64 noundef %7) #16
  %8 = load double, ptr %call6, align 8, !tbaa !7
  %mul = fmul double %add, %8
  %9 = load ptr, ptr %genCashFlows.addr, align 8, !tbaa !3
  %call7 = call noundef nonnull align 8 dereferenceable(24) ptr @_ZNSt6vectorIS_IN8QuantLib23MarketModelMultiProduct8CashFlowESaIS2_EESaIS4_EEixEm(ptr noundef nonnull align 8 dereferenceable(24) %9, i64 noundef 0) #16
  %call8 = call noundef nonnull align 8 dereferenceable(16) ptr @_ZNSt6vectorIN8QuantLib23MarketModelMultiProduct8CashFlowESaIS2_EEixEm(ptr noundef nonnull align 8 dereferenceable(24) %call7, i64 noundef 0) #16
  %amount = getelementptr inbounds nuw %"struct.QuantLib::MarketModelMultiProduct::CashFlow", ptr %call8, i32 0, i32 1
  store double %mul, ptr %amount, align 8, !tbaa !37
  %lastIndex_ = getelementptr inbounds nuw %"class.QuantLib::MultiStepTarn", ptr %this1, i32 0, i32 10
  %10 = load i64, ptr %lastIndex_, align 8, !tbaa !29
  %currentIndex_9 = getelementptr inbounds nuw %"class.QuantLib::MultiStepTarn", ptr %this1, i32 0, i32 12
  %11 = load i64, ptr %currentIndex_9, align 8, !tbaa !36
  %add10 = add i64 %10, %11
  %12 = load ptr, ptr %genCashFlows.addr, align 8, !tbaa !3
  %call11 = call noundef nonnull align 8 dereferenceable(24) ptr @_ZNSt6vectorIS_IN8QuantLib23MarketModelMultiProduct8CashFlowESaIS2_EESaIS4_EEixEm(ptr noundef nonnull align 8 dereferenceable(24) %12, i64 noundef 0) #16
  %call12 = call noundef nonnull align 8 dereferenceable(16) ptr @_ZNSt6vectorIN8QuantLib23MarketModelMultiProduct8CashFlowESaIS2_EEixEm(ptr noundef nonnull align 8 dereferenceable(24) %call11, i64 noundef 0) #16
  %timeIndex = getelementptr inbounds nuw %"struct.QuantLib::MarketModelMultiProduct::CashFlow", ptr %call12, i32 0, i32 0
  store i64 %add10, ptr %timeIndex, align 8, !tbaa !39
  %currentIndex_13 = getelementptr inbounds nuw %"class.QuantLib::MultiStepTarn", ptr %this1, i32 0, i32 12
  %13 = load i64, ptr %currentIndex_13, align 8, !tbaa !36
  %14 = load ptr, ptr %genCashFlows.addr, align 8, !tbaa !3
  %call14 = call noundef nonnull align 8 dereferenceable(24) ptr @_ZNSt6vectorIS_IN8QuantLib23MarketModelMultiProduct8CashFlowESaIS2_EESaIS4_EEixEm(ptr noundef nonnull align 8 dereferenceable(24) %14, i64 noundef 0) #16
  %call15 = call noundef nonnull align 8 dereferenceable(16) ptr @_ZNSt6vectorIN8QuantLib23MarketModelMultiProduct8CashFlowESaIS2_EEixEm(ptr noundef nonnull align 8 dereferenceable(24) %call14, i64 noundef 1) #16
  %timeIndex16 = getelementptr inbounds nuw %"struct.QuantLib::MarketModelMultiProduct::CashFlow", ptr %call15, i32 0, i32 0
  store i64 %13, ptr %timeIndex16, align 8, !tbaa !39
  call void @llvm.lifetime.start.p0(i64 8, ptr %obviousCoupon) #16
  call void @llvm.lifetime.start.p0(i64 8, ptr %ref.tmp) #16
  %strikes_ = getelementptr inbounds nuw %"class.QuantLib::MultiStepTarn", ptr %this1, i32 0, i32 7
  %currentIndex_17 = getelementptr inbounds nuw %"class.QuantLib::MultiStepTarn", ptr %this1, i32 0, i32 12
  %15 = load i64, ptr %currentIndex_17, align 8, !tbaa !36
  %call18 = call noundef nonnull align 8 dereferenceable(8) ptr @_ZNSt6vectorIdSaIdEEixEm(ptr noundef nonnull align 8 dereferenceable(24) %strikes_, i64 noundef %15) #16
  %16 = load double, ptr %call18, align 8, !tbaa !7
  %multipliers_ = getelementptr inbounds nuw %"class.QuantLib::MultiStepTarn", ptr %this1, i32 0, i32 8
  %currentIndex_19 = getelementptr inbounds nuw %"class.QuantLib::MultiStepTarn", ptr %this1, i32 0, i32 12
  %17 = load i64, ptr %currentIndex_19, align 8, !tbaa !36
  %call20 = call noundef nonnull align 8 dereferenceable(8) ptr @_ZNSt6vectorIdSaIdEEixEm(ptr noundef nonnull align 8 dereferenceable(24) %multipliers_, i64 noundef %17) #16
  %18 = load double, ptr %call20, align 8, !tbaa !7
  %19 = load double, ptr %liborRate, align 8, !tbaa !7
  %neg = fneg double %18
  %20 = call double @llvm.fmuladd.f64(double %neg, double %19, double %16)
  store double %20, ptr %ref.tmp, align 8, !tbaa !7
  call void @llvm.lifetime.start.p0(i64 8, ptr %ref.tmp22) #16
  store double 0.000000e+00, ptr %ref.tmp22, align 8, !tbaa !7
  %call23 = call noundef nonnull align 8 dereferenceable(8) ptr @_ZSt3maxIdERKT_S2_S2_(ptr noundef nonnull align 8 dereferenceable(8) %ref.tmp, ptr noundef nonnull align 8 dereferenceable(8) %ref.tmp22)
  %21 = load double, ptr %call23, align 8, !tbaa !7
  %accruals_ = getelementptr inbounds nuw %"class.QuantLib::MultiStepTarn", ptr %this1, i32 0, i32 1
  %currentIndex_24 = getelementptr inbounds nuw %"class.QuantLib::MultiStepTarn", ptr %this1, i32 0, i32 12
  %22 = load i64, ptr %currentIndex_24, align 8, !tbaa !36
  %call25 = call noundef nonnull align 8 dereferenceable(8) ptr @_ZNSt6vectorIdSaIdEEixEm(ptr noundef nonnull align 8 dereferenceable(24) %accruals_, i64 noundef %22) #16
  %23 = load double, ptr %call25, align 8, !tbaa !7
  %mul26 = fmul double %21, %23
  call void @llvm.lifetime.end.p0(i64 8, ptr %ref.tmp22) #16
  call void @llvm.lifetime.end.p0(i64 8, ptr %ref.tmp) #16
  store double %mul26, ptr %obviousCoupon, align 8, !tbaa !7
  %24 = load double, ptr %obviousCoupon, align 8, !tbaa !7
  %couponPaid_ = getelementptr inbounds nuw %"class.QuantLib::MultiStepTarn", ptr %this1, i32 0, i32 11
  %25 = load double, ptr %couponPaid_, align 8, !tbaa !40
  %add27 = fadd double %25, %24
  store double %add27, ptr %couponPaid_, align 8, !tbaa !40
  %currentIndex_28 = getelementptr inbounds nuw %"class.QuantLib::MultiStepTarn", ptr %this1, i32 0, i32 12
  %26 = load i64, ptr %currentIndex_28, align 8, !tbaa !36
  %inc = add i64 %26, 1
  store i64 %inc, ptr %currentIndex_28, align 8, !tbaa !36
  %couponPaid_29 = getelementptr inbounds nuw %"class.QuantLib::MultiStepTarn", ptr %this1, i32 0, i32 11
  %27 = load double, ptr %couponPaid_29, align 8, !tbaa !40
  %totalCoupon_ = getelementptr inbounds nuw %"class.QuantLib::MultiStepTarn", ptr %this1, i32 0, i32 6
  %28 = load double, ptr %totalCoupon_, align 8, !tbaa !11
  %cmp = fcmp olt double %27, %28
  br i1 %cmp, label %land.lhs.true, label %if.end

land.lhs.true:                                    ; preds = %entry
  %currentIndex_30 = getelementptr inbounds nuw %"class.QuantLib::MultiStepTarn", ptr %this1, i32 0, i32 12
  %29 = load i64, ptr %currentIndex_30, align 8, !tbaa !36
  %lastIndex_31 = getelementptr inbounds nuw %"class.QuantLib::MultiStepTarn", ptr %this1, i32 0, i32 10
  %30 = load i64, ptr %lastIndex_31, align 8, !tbaa !29
  %cmp32 = icmp ult i64 %29, %30
  br i1 %cmp32, label %if.then, label %if.end

if.then:                                          ; preds = %land.lhs.true
  %31 = load double, ptr %obviousCoupon, align 8, !tbaa !7
  %fneg = fneg double %31
  %32 = load ptr, ptr %genCashFlows.addr, align 8, !tbaa !3
  %call33 = call noundef nonnull align 8 dereferenceable(24) ptr @_ZNSt6vectorIS_IN8QuantLib23MarketModelMultiProduct8CashFlowESaIS2_EESaIS4_EEixEm(ptr noundef nonnull align 8 dereferenceable(24) %32, i64 noundef 0) #16
  %call34 = call noundef nonnull align 8 dereferenceable(16) ptr @_ZNSt6vectorIN8QuantLib23MarketModelMultiProduct8CashFlowESaIS2_EEixEm(ptr noundef nonnull align 8 dereferenceable(24) %call33, i64 noundef 1) #16
  %amount35 = getelementptr inbounds nuw %"struct.QuantLib::MarketModelMultiProduct::CashFlow", ptr %call34, i32 0, i32 1
  store double %fneg, ptr %amount35, align 8, !tbaa !37
  store i1 false, ptr %retval, align 1
  store i32 1, ptr %cleanup.dest.slot, align 4
  br label %cleanup

if.end:                                           ; preds = %land.lhs.true, %entry
  call void @llvm.lifetime.start.p0(i64 8, ptr %coupon) #16
  %33 = load double, ptr %obviousCoupon, align 8, !tbaa !7
  %totalCoupon_36 = getelementptr inbounds nuw %"class.QuantLib::MultiStepTarn", ptr %this1, i32 0, i32 6
  %34 = load double, ptr %totalCoupon_36, align 8, !tbaa !11
  %couponPaid_37 = getelementptr inbounds nuw %"class.QuantLib::MultiStepTarn", ptr %this1, i32 0, i32 11
  %35 = load double, ptr %couponPaid_37, align 8, !tbaa !40
  %sub = fsub double %34, %35
  %add38 = fadd double %33, %sub
  store double %add38, ptr %coupon, align 8, !tbaa !7
  %36 = load double, ptr %coupon, align 8, !tbaa !7
  %fneg39 = fneg double %36
  %37 = load ptr, ptr %genCashFlows.addr, align 8, !tbaa !3
  %call40 = call noundef nonnull align 8 dereferenceable(24) ptr @_ZNSt6vectorIS_IN8QuantLib23MarketModelMultiProduct8CashFlowESaIS2_EESaIS4_EEixEm(ptr noundef nonnull align 8 dereferenceable(24) %37, i64 noundef 0) #16
  %call41 = call noundef nonnull align 8 dereferenceable(16) ptr @_ZNSt6vectorIN8QuantLib23MarketModelMultiProduct8CashFlowESaIS2_EEixEm(ptr noundef nonnull align 8 dereferenceable(24) %call40, i64 noundef 1) #16
  %amount42 = getelementptr inbounds nuw %"struct.QuantLib::MarketModelMultiProduct::CashFlow", ptr %call41, i32 0, i32 1
  store double %fneg39, ptr %amount42, align 8, !tbaa !37
  store i1 true, ptr %retval, align 1
  store i32 1, ptr %cleanup.dest.slot, align 4
  call void @llvm.lifetime.end.p0(i64 8, ptr %coupon) #16
  br label %cleanup

cleanup:                                          ; preds = %if.end, %if.then
  call void @llvm.lifetime.end.p0(i64 8, ptr %obviousCoupon) #16
  call void @llvm.lifetime.end.p0(i64 8, ptr %liborRate) #16
  %38 = load i1, ptr %retval, align 1
  ret i1 %38
}