; Function Attrs: mustprogress uwtable
define noundef zeroext i1 @_ZN8QuantLib13MultiStepTarn12nextTimeStepERKNS_10CurveStateERSt6vectorImSaImEERS4_IS4_INS_23MarketModelMultiProduct8CashFlowESaIS9_EESaISB_EE(ptr nocapture noundef nonnull align 8 dereferenceable(384) %this, ptr noundef nonnull align 8 dereferenceable(64) %currentState, ptr nocapture noundef nonnull readonly align 8 dereferenceable(24) %numberCashFlowsThisStep, ptr nocapture noundef nonnull readonly align 8 dereferenceable(24) %genCashFlows) unnamed_addr #0 align 2 {
entry:
  %currentIndex_ = getelementptr inbounds nuw i8, ptr %this, i64 376
  %0 = load i64, ptr %currentIndex_, align 8, !tbaa !49
  %vtable = load ptr, ptr %currentState, align 8, !tbaa !12
  %vfn = getelementptr inbounds i8, ptr %vtable, i64 24
  %1 = load ptr, ptr %vfn, align 8
  %call = tail call noundef double %1(ptr noundef nonnull align 8 dereferenceable(64) %currentState, i64 noundef %0)
  %2 = load ptr, ptr %numberCashFlowsThisStep, align 8, !tbaa !45
  store i64 2, ptr %2, align 8, !tbaa !42
  %floatingSpreads_ = getelementptr inbounds nuw i8, ptr %this, i64 336
  %3 = load i64, ptr %currentIndex_, align 8, !tbaa !49
  %4 = load ptr, ptr %floatingSpreads_, align 8, !tbaa !10
  %add.ptr.i = getelementptr inbounds nuw double, ptr %4, i64 %3
  %5 = load double, ptr %add.ptr.i, align 8, !tbaa !38
  %add = fadd double %call, %5
  %accrualsFloating_ = getelementptr inbounds nuw i8, ptr %this, i64 184
  %6 = load ptr, ptr %accrualsFloating_, align 8, !tbaa !10
  %add.ptr.i8 = getelementptr inbounds nuw double, ptr %6, i64 %3
  %7 = load double, ptr %add.ptr.i8, align 8, !tbaa !38
  %mul = fmul double %add, %7
  %8 = load ptr, ptr %genCashFlows, align 8, !tbaa !50
  %9 = load ptr, ptr %8, align 8, !tbaa !52
  %amount = getelementptr inbounds nuw i8, ptr %9, i64 8
  store double %mul, ptr %amount, align 8, !tbaa !54
  %lastIndex_ = getelementptr inbounds nuw i8, ptr %this, i64 360
  %10 = load i64, ptr %lastIndex_, align 8, !tbaa !37
  %add10 = add i64 %10, %3
  store i64 %add10, ptr %9, align 8, !tbaa !56
  %add.ptr.i14 = getelementptr inbounds nuw i8, ptr %9, i64 16
  store i64 %3, ptr %add.ptr.i14, align 8, !tbaa !56
  %strikes_ = getelementptr inbounds nuw i8, ptr %this, i64 288
  %11 = load ptr, ptr %strikes_, align 8, !tbaa !10
  %add.ptr.i15 = getelementptr inbounds nuw double, ptr %11, i64 %3
  %12 = load double, ptr %add.ptr.i15, align 8, !tbaa !38
  %multipliers_ = getelementptr inbounds nuw i8, ptr %this, i64 312
  %13 = load ptr, ptr %multipliers_, align 8, !tbaa !10
  %add.ptr.i16 = getelementptr inbounds nuw double, ptr %13, i64 %3
  %14 = load double, ptr %add.ptr.i16, align 8, !tbaa !38
  %neg = fneg double %14
  %15 = tail call double @llvm.fmuladd.f64(double %neg, double %call, double %12)
  %cmp.i = fcmp olt double %15, 0.000000e+00
  %.sroa.speculated = select i1 %cmp.i, double 0.000000e+00, double %15
  %accruals_ = getelementptr inbounds nuw i8, ptr %this, i64 160
  %16 = load ptr, ptr %accruals_, align 8, !tbaa !10
  %add.ptr.i17 = getelementptr inbounds nuw double, ptr %16, i64 %3
  %17 = load double, ptr %add.ptr.i17, align 8, !tbaa !38
  %mul26 = fmul double %17, %.sroa.speculated
  %couponPaid_ = getelementptr inbounds nuw i8, ptr %this, i64 368
  %18 = load double, ptr %couponPaid_, align 8, !tbaa !57
  %add27 = fadd double %18, %mul26
  store double %add27, ptr %couponPaid_, align 8, !tbaa !57
  %inc = add i64 %3, 1
  store i64 %inc, ptr %currentIndex_, align 8, !tbaa !49
  %totalCoupon_ = getelementptr inbounds nuw i8, ptr %this, i64 280
  %19 = load double, ptr %totalCoupon_, align 8, !tbaa !14
  %cmp = fcmp uge double %add27, %19
  %20 = load i64, ptr %lastIndex_, align 8
  %cmp32 = icmp uge i64 %inc, %20
  %or.cond.not = select i1 %cmp, i1 true, i1 %cmp32
  %sub = fsub double %19, %add27
  %add38 = fadd double %mul26, %sub
  %add38.sink = select i1 %or.cond.not, double %add38, double %mul26
  %fneg39 = fneg double %add38.sink
  %21 = getelementptr inbounds nuw i8, ptr %9, i64 24
  store double %fneg39, ptr %21, align 8
  ret i1 %or.cond.not
}